target datalayout = "e-m:e-p270:32:32-p271:32:32-p272:64:64-i64:64-i128:128-f80:128-n8:16:32:64-S128"
target triple = "x86_64-pc-linux-gnu"

%struct.crypto_ex_data_st = type { ptr }
%struct.ssl_st = type { i32, i16, i16, ptr, ptr, ptr, ptr, ptr, i32, i32, ptr, ptr, i32, i32, ptr, ptr, ptr, ptr, ptr, ptr, ptr, ptr, i32, i32, [32 x i8], ptr, ptr, ptr, ptr, ptr, ptr, ptr, i64, %struct.crypto_ex_data_st, ptr, i32, i32, i32, i32, i16, ptr, i32, i64, ptr, ptr, ptr, ptr, ptr, ptr, i32, i32, ptr, ptr, i8, i8, i32 }
%struct.ssl_protocol_method_st = type { i8, ptr, ptr, ptr, ptr, ptr, ptr, ptr, ptr, ptr, ptr, ptr, i32, ptr, ptr }

; Function Attrs: nounwind uwtable
define hidden zeroext i16 @ssl3_version_from_wire(ptr noundef %0, i16 noundef zeroext %1) #0 {
  %3 = alloca i16, align 2
  %4 = alloca ptr, align 8
  %5 = alloca i16, align 2
  %6 = alloca i16, align 2
  %7 = alloca i16, align 2
  store ptr %0, ptr %4, align 8, !tbaa !80
  store i16 %1, ptr %5, align 2, !tbaa !63
  %8 = load ptr, ptr %4, align 8, !tbaa !80
  %9 = getelementptr inbounds nuw %struct.ssl_st, ptr %8, i32 0, i32 3
  %10 = load ptr, ptr %9, align 8, !tbaa !117
  %11 = getelementptr inbounds nuw %struct.ssl_protocol_method_st, ptr %10, i32 0, i32 0
  %12 = load i8, ptr %11, align 8, !tbaa !192
  %13 = icmp ne i8 %12, 0
  br i1 %13, label %16, label %14

14:                                               ; preds = %2
  %15 = load i16, ptr %5, align 2, !tbaa !63
  store i16 %15, ptr %3, align 2
  br label %59

16:                                               ; preds = %2
  call void @llvm.lifetime.start.p0(i64 2, ptr %6) #8
  %17 = load i16, ptr %5, align 2, !tbaa !63
  %18 = zext i16 %17 to i32
  %19 = xor i32 %18, -1
  %20 = trunc i32 %19 to i16
  store i16 %20, ptr %6, align 2, !tbaa !63
  call void @llvm.lifetime.start.p0(i64 2, ptr %7) #8
  %21 = load i16, ptr %6, align 2, !tbaa !63
  %22 = zext i16 %21 to i32
  %23 = add nsw i32 %22, 513
  %24 = trunc i32 %23 to i16
  store i16 %24, ptr %7, align 2, !tbaa !63
  %25 = load i16, ptr %7, align 2, !tbaa !63
  %26 = zext i16 %25 to i32
  %27 = ashr i32 %26, 8
  %28 = load i16, ptr %6, align 2, !tbaa !63
  %29 = zext i16 %28 to i32
  %30 = ashr i32 %29, 8
  %31 = icmp slt i32 %27, %30
  br i1 %31, label %32, label %38

32:                                               ; preds = %16
  %33 = load i16, ptr %7, align 2, !tbaa !63
  %34 = zext i16 %33 to i32
  %35 = and i32 %34, 255
  %36 = or i32 65280, %35
  %37 = trunc i32 %36 to i16
  store i16 %37, ptr %7, align 2, !tbaa !63
  br label %38

38:                                               ; preds = %32, %16
  %39 = load i16, ptr %7, align 2, !tbaa !63
  %40 = zext i16 %39 to i32
  %41 = and i32 %40, 255
  %42 = load i16, ptr %6, align 2, !tbaa !63
  %43 = zext i16 %42 to i32
  %44 = and i32 %43, 255
  %45 = icmp slt i32 %41, %44
  br i1 %45, label %46, label %52

46:                                               ; preds = %38
  %47 = load i16, ptr %7, align 2, !tbaa !63
  %48 = zext i16 %47 to i32
  %49 = and i32 %48, 65280
  %50 = or i32 %49, 255
  %51 = trunc i32 %50 to i16
  store i16 %51, ptr %7, align 2, !tbaa !63
  br label %52

52:                                               ; preds = %46, %38
  %53 = load i16, ptr %7, align 2, !tbaa !63
  %54 = zext i16 %53 to i32
  %55 = icmp eq i32 %54, 769
  br i1 %55, label %56, label %57

56:                                               ; preds = %52
  store i16 770, ptr %7, align 2, !tbaa !63
  br label %57

57:                                               ; preds = %56, %52
  %58 = load i16, ptr %7, align 2, !tbaa !63
  store i16 %58, ptr %3, align 2
  call void @llvm.lifetime.end.p0(i64 2, ptr %7) #8
  call void @llvm.lifetime.end.p0(i64 2, ptr %6) #8
  br label %59

59:                                               ; preds = %57, %14
  %60 = load i16, ptr %3, align 2
  ret i16 %60
}

; Function Attrs: nounwind uwtable
define hidden zeroext i16 @ssl3_protocol_version(ptr noundef %0) #0 {
  %2 = alloca ptr, align 8
  store ptr %0, ptr %2, align 8, !tbaa !80
  %3 = load ptr, ptr %2, align 8, !tbaa !80
  %4 = load ptr, ptr %2, align 8, !tbaa !80
  %5 = getelementptr inbounds nuw %struct.ssl_st, ptr %4, i32 0, i32 0
  %6 = load i32, ptr %5, align 8, !tbaa !178
  %7 = trunc i32 %6 to i16
  %8 = call zeroext i16 @ssl3_version_from_wire(ptr noundef %3, i16 noundef zeroext %7)
  ret i16 %8
}