; Function Attrs: mustprogress nofree norecurse nosync nounwind willreturn memory(read, inaccessiblemem: none) uwtable
define hidden zeroext i16 @ssl3_protocol_version(ptr noundef readonly captures(none) %0) local_unnamed_addr #10 {
  %2 = load i32, ptr %0, align 8, !tbaa !159
  %3 = trunc i32 %2 to i16
  %4 = getelementptr inbounds nuw i8, ptr %0, i64 8
  %5 = load ptr, ptr %4, align 8, !tbaa !106
  %6 = load i8, ptr %5, align 8, !tbaa !174
  %.not.i = icmp eq i8 %6, 0
  br i1 %.not.i, label %ssl3_version_from_wire.exit, label %7

7:                                                ; preds = %1
  %8 = and i32 %2, 65535
  %9 = xor i32 %8, 65535
  %10 = sub i16 512, %3
  %11 = lshr i16 %10, 8
  %12 = zext nneg i16 %11 to i32
  %13 = lshr i32 %9, 8
  %14 = icmp samesign ugt i32 %13, %12
  %15 = or i16 %10, -256
  %spec.select.i = select i1 %14, i16 %15, i16 %10
  %16 = and i16 %spec.select.i, 255
  %17 = zext nneg i16 %16 to i32
  %18 = and i32 %9, 255
  %19 = icmp samesign ugt i32 %18, %17
  %20 = or i16 %spec.select.i, 255
  %.1.i = select i1 %19, i16 %20, i16 %spec.select.i
  %21 = icmp eq i16 %.1.i, 769
  %spec.store.select.i = select i1 %21, i16 770, i16 %.1.i
  br label %ssl3_version_from_wire.exit

ssl3_version_from_wire.exit:                      ; preds = %1, %7
  %.012.i = phi i16 [ %spec.store.select.i, %7 ], [ %3, %1 ]
  ret i16 %.012.i
}